target datalayout = "e-m:e-p270:32:32-p271:32:32-p272:64:64-i64:64-i128:128-f80:128-n8:16:32:64-S128"
target triple = "x86_64-pc-linux-gnu"

; Function Attrs: nounwind uwtable
define dso_local ptr @yyjson_mut_val_mut_copy(ptr noundef %0, ptr noundef %1) #0 {
  %3 = alloca ptr, align 8
  %4 = alloca ptr, align 8
  %5 = alloca ptr, align 8
  store ptr %0, ptr %4, align 8, !tbaa !71
  store ptr %1, ptr %5, align 8, !tbaa !85
  %6 = load ptr, ptr %4, align 8, !tbaa !71
  %7 = icmp ne ptr %6, null
  br i1 %7, label %8, label %15

8:                                                ; preds = %2
  %9 = load ptr, ptr %5, align 8, !tbaa !85
  %10 = icmp ne ptr %9, null
  br i1 %10, label %11, label %15

11:                                               ; preds = %8
  %12 = load ptr, ptr %4, align 8, !tbaa !71
  %13 = load ptr, ptr %5, align 8, !tbaa !85
  %14 = call ptr @unsafe_yyjson_mut_val_mut_copy(ptr noundef %12, ptr noundef %13)
  store ptr %14, ptr %3, align 8
  br label %16

15:                                               ; preds = %8, %2
  store ptr null, ptr %3, align 8
  br label %16

16:                                               ; preds = %15, %11
  %17 = load ptr, ptr %3, align 8
  ret ptr %17
}