; Function Attrs: nounwind uwtable
define dso_local ptr @yyjson_mut_val_mut_copy(ptr noundef %0, ptr noundef readonly captures(address_is_null) %1) local_unnamed_addr #8 {
  %3 = icmp ne ptr %0, null
  %4 = icmp ne ptr %1, null
  %or.cond = and i1 %3, %4
  br i1 %or.cond, label %5, label %7

5:                                                ; preds = %2
  %6 = tail call fastcc ptr @unsafe_yyjson_mut_val_mut_copy(ptr noundef %0, ptr noundef nonnull %1)
  br label %7

7:                                                ; preds = %2, %5
  %.0 = phi ptr [ %6, %5 ], [ null, %2 ]
  ret ptr %.0
}